; Function Attrs: mustprogress nounwind uwtable
define hidden noundef i32 @_ZN7Threads23print_threads_compilingEP12outputStreamPcib(ptr noundef %0, ptr noundef %1, i32 noundef %2, i1 noundef zeroext %3) local_unnamed_addr #0 align 2 {
  %5 = load volatile ptr, ptr @_ZN17ThreadsSMRSupport17_java_thread_listE, align 8
  tail call void asm sideeffect "", "~{memory},~{dirflag},~{fpsr},~{flags}"() #15, !srcloc !8
  %6 = getelementptr inbounds i8, ptr %5, i64 16
  %7 = load ptr, ptr %6, align 8
  %8 = getelementptr inbounds i8, ptr %5, i64 4
  %9 = load i32, ptr %8, align 4
  %10 = zext i32 %9 to i64
  %11 = getelementptr inbounds ptr, ptr %7, i64 %10
  %.not2021 = icmp eq i32 %9, 0
  br i1 %.not2021, label %._crit_edge, label %.lr.ph

.lr.ph:                                           ; preds = %4, %23
  %.023 = phi i32 [ %.1, %23 ], [ 0, %4 ]
  %.sroa.0.022 = phi ptr [ %24, %23 ], [ %7, %4 ]
  %12 = load i64, ptr @PrefetchScanIntervalInBytes, align 8
  tail call void asm sideeffect "prefetcht0 ($0,$1,1)", "r,r,~{dirflag},~{fpsr},~{flags}"(ptr %.sroa.0.022, i64 %12) #15, !srcloc !9
  %13 = load ptr, ptr %.sroa.0.022, align 8
  %14 = load ptr, ptr %13, align 8
  %15 = getelementptr inbounds i8, ptr %14, i64 64
  %16 = load ptr, ptr %15, align 8
  %17 = tail call noundef zeroext i1 %16(ptr noundef nonnull align 8 dereferenceable(888) %13) #15
  br i1 %17, label %18, label %23

18:                                               ; preds = %.lr.ph
  %19 = getelementptr inbounds i8, ptr %13, i64 1824
  %20 = load volatile ptr, ptr %19, align 8
  %.not = icmp eq ptr %20, null
  br i1 %.not, label %23, label %21

21:                                               ; preds = %18
  tail call void @_ZNK10JavaThread19print_name_on_errorEP12outputStreamPci(ptr noundef nonnull align 8 dereferenceable(1800) %13, ptr noundef %0, ptr noundef %1, i32 noundef %2) #15
  tail call void (ptr, ptr, ...) @_ZN12outputStream5printEPKcz(ptr noundef nonnull align 8 dereferenceable(56) %0, ptr noundef nonnull @.str.20) #15
  tail call void @_ZN11CompileTask5printEP12outputStreamPKcbb(ptr noundef nonnull align 8 dereferenceable(176) %20, ptr noundef nonnull %0, ptr noundef null, i1 noundef zeroext %3, i1 noundef zeroext true) #15
  %22 = add i32 %.023, 1
  br label %23

23:                                               ; preds = %.lr.ph, %21, %18
  %.1 = phi i32 [ %22, %21 ], [ %.023, %18 ], [ %.023, %.lr.ph ]
  %24 = getelementptr inbounds i8, ptr %.sroa.0.022, i64 8
  %.not20 = icmp eq ptr %24, %11
  br i1 %.not20, label %._crit_edge, label %.lr.ph

._crit_edge:                                      ; preds = %23, %4
  %.0.lcssa = phi i32 [ 0, %4 ], [ %.1, %23 ]
  ret i32 %.0.lcssa
}